; Function Attrs: mustprogress uwtable
define internal noundef zeroext i1 @_ZL23setup_syllables_myanmarPK18hb_ot_shape_plan_tP9hb_font_tP11hb_buffer_t(ptr nocapture readnone %0, ptr nocapture readnone %1, ptr noundef %2) #0 {
  %4 = getelementptr inbounds i8, ptr %2, i64 176
  %5 = load i8, ptr %4, align 8
  %6 = or i8 %5, 8
  store i8 %6, ptr %4, align 8
  tail call void @_Z22find_syllables_myanmarP11hb_buffer_t(ptr noundef nonnull %2)
  %7 = getelementptr inbounds i8, ptr %2, i64 88
  %8 = load i32, ptr %7, align 8
  %.not = icmp eq i32 %8, 0
  br i1 %.not, label %._crit_edge, label %9

9:                                                ; preds = %3
  %10 = getelementptr i8, ptr %2, i64 104
  %.val13 = load ptr, ptr %10, align 8
  %11 = getelementptr inbounds i8, ptr %.val13, i64 15
  %12 = load i8, ptr %11, align 1
  %invariant.gep.i = getelementptr inbounds i8, ptr %.val13, i64 3
  %13 = add i32 %8, -1
  %wide.trip.count = zext i32 %13 to i64
  br label %14

14:                                               ; preds = %15, %9
  %indvars.iv = phi i64 [ %indvars.iv.next, %15 ], [ 0, %9 ]
  %exitcond.not = icmp eq i64 %indvars.iv, %wide.trip.count
  br i1 %exitcond.not, label %_ZL17_hb_next_syllableP11hb_buffer_tj.exit, label %15

15:                                               ; preds = %14
  %indvars.iv.next = add nuw nsw i64 %indvars.iv, 1
  %gep.i = getelementptr inbounds %struct.hb_glyph_info_t, ptr %invariant.gep.i, i64 %indvars.iv.next, i32 3
  %16 = load i8, ptr %gep.i, align 1
  %17 = icmp eq i8 %12, %16
  br i1 %17, label %14, label %_ZL17_hb_next_syllableP11hb_buffer_tj.exit.split.loop.exit, !llvm.loop !10

_ZL17_hb_next_syllableP11hb_buffer_tj.exit.split.loop.exit: ; preds = %15
  %18 = trunc nuw i64 %indvars.iv.next to i32
  br label %_ZL17_hb_next_syllableP11hb_buffer_tj.exit

_ZL17_hb_next_syllableP11hb_buffer_tj.exit:       ; preds = %14, %_ZL17_hb_next_syllableP11hb_buffer_tj.exit.split.loop.exit
  %19 = phi i32 [ %18, %_ZL17_hb_next_syllableP11hb_buffer_tj.exit.split.loop.exit ], [ %8, %14 ]
  br i1 %.not, label %._crit_edge, label %.lr.ph

.lr.ph:                                           ; preds = %_ZL17_hb_next_syllableP11hb_buffer_tj.exit
  %20 = getelementptr i8, ptr %2, i64 104
  br label %21

21:                                               ; preds = %.lr.ph, %_ZL17_hb_next_syllableP11hb_buffer_tj.exit21
  %.023 = phi i32 [ %19, %.lr.ph ], [ %.lcssa.i19, %_ZL17_hb_next_syllableP11hb_buffer_tj.exit21 ]
  %.01222 = phi i32 [ 0, %.lr.ph ], [ %.023, %_ZL17_hb_next_syllableP11hb_buffer_tj.exit21 ]
  tail call void @_ZN11hb_buffer_t16_set_glyph_flagsEjjjbb(ptr noundef nonnull align 8 dereferenceable(220) %2, i32 noundef 3, i32 noundef %.01222, i32 noundef %.023, i1 noundef zeroext true, i1 noundef zeroext false)
  %.val14 = load i32, ptr %7, align 8
  %.val15 = load ptr, ptr %20, align 8
  %22 = zext i32 %.023 to i64
  %23 = getelementptr inbounds %struct.hb_glyph_info_t, ptr %.val15, i64 %22, i32 3
  %24 = getelementptr inbounds i8, ptr %23, i64 3
  %25 = load i8, ptr %24, align 1
  %invariant.gep.i16 = getelementptr inbounds i8, ptr %.val15, i64 3
  %26 = add i32 %.023, 1
  %umax.i17 = tail call i32 @llvm.umax.i32(i32 %.val14, i32 %26)
  %27 = add i32 %umax.i17, -1
  br label %28

28:                                               ; preds = %29, %21
  %.0.i18 = phi i32 [ %.023, %21 ], [ %30, %29 ]
  %exitcond26.not = icmp eq i32 %.0.i18, %27
  br i1 %exitcond26.not, label %_ZL17_hb_next_syllableP11hb_buffer_tj.exit21, label %29

29:                                               ; preds = %28
  %30 = add i32 %.0.i18, 1
  %31 = zext i32 %30 to i64
  %gep.i20 = getelementptr inbounds %struct.hb_glyph_info_t, ptr %invariant.gep.i16, i64 %31, i32 3
  %32 = load i8, ptr %gep.i20, align 1
  %33 = icmp eq i8 %25, %32
  br i1 %33, label %28, label %_ZL17_hb_next_syllableP11hb_buffer_tj.exit21, !llvm.loop !10

_ZL17_hb_next_syllableP11hb_buffer_tj.exit21:     ; preds = %28, %29
  %.lcssa.i19 = phi i32 [ %umax.i17, %28 ], [ %30, %29 ]
  %34 = icmp ult i32 %.023, %8
  br i1 %34, label %21, label %._crit_edge, !llvm.loop !11

._crit_edge:                                      ; preds = %_ZL17_hb_next_syllableP11hb_buffer_tj.exit21, %3, %_ZL17_hb_next_syllableP11hb_buffer_tj.exit
  ret i1 false
}